target datalayout = "e-m:e-p270:32:32-p271:32:32-p272:64:64-i64:64-i128:128-f80:128-n8:16:32:64-S128"
target triple = "x86_64-pc-linux-gnu"

%class.ZRootStatSubPhase = type { %class.ZStatSubPhase, %class.ZStatSubPhase }
%class.ZStatSubPhase = type { %class.ZStatPhase }
%class.ZStatPhase = type { ptr, %class.ZStatSampler }
%class.ZStatSampler = type { %class.ZStatIterableValue, ptr }
%class.ZStatIterableValue = type { %class.ZStatValue, ptr }
%class.ZStatValue = type { ptr, ptr, i32, i32 }
%class.ZRootStatTimer = type { ptr, %class.TimeInstant }
%class.TimeInstant = type { %class.CompositeCounterRepresentation }
%class.CompositeCounterRepresentation = type { %class.Representation }
%class.Representation = type { %class.PairRep }
%class.PairRep = type { i64, i64 }
%class.ZJavaThreadsIterator = type <{ %class.ThreadsListHandle, i32, i8, [3 x i8] }>
%class.ThreadsListHandle = type { %class.SafeThreadsListPtr, %class.elapsedTimer }
%class.SafeThreadsListPtr = type <{ ptr, ptr, ptr, i8, i8, [6 x i8] }>
%class.elapsedTimer = type <{ i64, i64, i8, [7 x i8] }>
%class.ZNMethodsIteratorImpl = type { i8, i8, i8 }
%class.ZRootsIteratorStrongUncolored = type { %class.ZParallelApply.9, %class.ZParallelApply.11, [4 x i8] }
%class.ZParallelApply.9 = type { %class.ZJavaThreadsIterator, i8, [7 x i8] }
%class.ZParallelApply.11 = type { %class.ZNMethodsIteratorStrong, i8 }
%class.ZNMethodsIteratorStrong = type { %class.ZNMethodsIteratorImpl }
%"struct.Atomic::LoadImpl" = type { i8 }
%"struct.Atomic::StoreImpl" = type { i8 }
%"struct.Atomic::PlatformLoad" = type { i8 }
%"struct.Atomic::PlatformStore" = type { i8 }

@_ZL33ZSubPhaseConcurrentRootsCodeCache = internal global %class.ZRootStatSubPhase zeroinitializer, align 8
@ClassUnloading = external global i8, align 1

; Function Attrs: mustprogress nounwind uwtable
define linkonce_odr hidden void @_ZN7PairRepIllEC2Ev(ptr noundef nonnull align 8 dereferenceable(16) %0) unnamed_addr #1 comdat align 2 {
  %2 = alloca ptr, align 8
  store ptr %0, ptr %2, align 8
  %3 = load ptr, ptr %2, align 8
  %4 = getelementptr inbounds %class.PairRep, ptr %3, i32 0, i32 0
  store i64 0, ptr %4, align 8
  %5 = getelementptr inbounds %class.PairRep, ptr %3, i32 0, i32 1
  store i64 0, ptr %5, align 8
  ret void
}

; Function Attrs: mustprogress nounwind uwtable
define linkonce_odr hidden void @_ZN14RepresentationI29CompositeElapsedCounterSourceEC2Ev(ptr noundef nonnull align 8 dereferenceable(16) %0) unnamed_addr #1 comdat align 2 {
  %2 = alloca ptr, align 8
  store ptr %0, ptr %2, align 8
  %3 = load ptr, ptr %2, align 8
  %4 = getelementptr inbounds %class.Representation, ptr %3, i32 0, i32 0
  call void @_ZN7PairRepIllEC2Ev(ptr noundef nonnull align 8 dereferenceable(16) %4)
  ret void
}

; Function Attrs: mustprogress nounwind uwtable
define linkonce_odr hidden void @_ZN30CompositeCounterRepresentationI29CompositeElapsedCounterSourceEC2Ev(ptr noundef nonnull align 8 dereferenceable(16) %0) unnamed_addr #1 comdat align 2 {
  %2 = alloca ptr, align 8
  store ptr %0, ptr %2, align 8
  %3 = load ptr, ptr %2, align 8
  call void @_ZN14RepresentationI29CompositeElapsedCounterSourceEC2Ev(ptr noundef nonnull align 8 dereferenceable(16) %3)
  ret void
}

; Function Attrs: mustprogress nounwind uwtable
define linkonce_odr hidden void @_ZN11TimeInstantI30CompositeCounterRepresentation29CompositeElapsedCounterSourceE5stampEv(ptr noundef nonnull align 8 dereferenceable(16) %0) #1 comdat align 2 {
  %2 = alloca ptr, align 8
  %3 = alloca %class.PairRep, align 8
  store ptr %0, ptr %2, align 8
  %4 = load ptr, ptr %2, align 8
  %5 = call { i64, i64 } @_ZN29CompositeElapsedCounterSource3nowEv()
  %6 = getelementptr inbounds { i64, i64 }, ptr %3, i32 0, i32 0
  %7 = extractvalue { i64, i64 } %5, 0
  store i64 %7, ptr %6, align 8
  %8 = getelementptr inbounds { i64, i64 }, ptr %3, i32 0, i32 1
  %9 = extractvalue { i64, i64 } %5, 1
  store i64 %9, ptr %8, align 8
  %10 = getelementptr inbounds %class.Representation, ptr %4, i32 0, i32 0
  call void @llvm.memcpy.p0.p0.i64(ptr align 8 %10, ptr align 8 %3, i64 16, i1 false)
  ret void
}

; Function Attrs: mustprogress nounwind uwtable
define linkonce_odr hidden void @_ZN11TimeInstantI30CompositeCounterRepresentation29CompositeElapsedCounterSourceEC2Ev(ptr noundef nonnull align 8 dereferenceable(16) %0) unnamed_addr #1 comdat align 2 {
  %2 = alloca ptr, align 8
  store ptr %0, ptr %2, align 8
  %3 = load ptr, ptr %2, align 8
  call void @_ZN30CompositeCounterRepresentationI29CompositeElapsedCounterSourceEC2Ev(ptr noundef nonnull align 8 dereferenceable(16) %3)
  ret void
}

; Function Attrs: mustprogress nounwind uwtable
define linkonce_odr hidden noundef nonnull align 8 dereferenceable(48) ptr @_ZNK17ZRootStatSubPhase3oldEv(ptr noundef nonnull align 8 dereferenceable(96) %0) #1 comdat align 2 {
  %2 = alloca ptr, align 8
  store ptr %0, ptr %2, align 8
  %3 = load ptr, ptr %2, align 8
  %4 = getelementptr inbounds %class.ZRootStatSubPhase, ptr %3, i32 0, i32 1
  ret ptr %4
}

; Function Attrs: mustprogress nounwind uwtable
define linkonce_odr hidden noundef nonnull align 8 dereferenceable(48) ptr @_ZNK17ZRootStatSubPhase5youngEv(ptr noundef nonnull align 8 dereferenceable(96) %0) #1 comdat align 2 {
  %2 = alloca ptr, align 8
  store ptr %0, ptr %2, align 8
  %3 = load ptr, ptr %2, align 8
  %4 = getelementptr inbounds %class.ZRootStatSubPhase, ptr %3, i32 0, i32 0
  ret ptr %4
}

; Function Attrs: mustprogress nounwind uwtable
define linkonce_odr hidden { i64, i64 } @_ZN11TimeInstantI30CompositeCounterRepresentation29CompositeElapsedCounterSourceE3nowEv() #1 comdat align 2 {
  %1 = alloca %class.TimeInstant, align 8
  call void @_ZN11TimeInstantI30CompositeCounterRepresentation29CompositeElapsedCounterSourceEC2Ev(ptr noundef nonnull align 8 dereferenceable(16) %1)
  call void @_ZN11TimeInstantI30CompositeCounterRepresentation29CompositeElapsedCounterSourceE5stampEv(ptr noundef nonnull align 8 dereferenceable(16) %1)
  %2 = getelementptr inbounds %class.TimeInstant, ptr %1, i32 0, i32 0
  %3 = getelementptr inbounds %class.CompositeCounterRepresentation, ptr %2, i32 0, i32 0
  %4 = getelementptr inbounds %class.Representation, ptr %3, i32 0, i32 0
  %5 = load { i64, i64 }, ptr %4, align 8
  ret { i64, i64 } %5
}

; Function Attrs: mustprogress nounwind uwtable
define linkonce_odr hidden void @_ZN14ZRootStatTimerC2EPK10ZStatPhase(ptr noundef nonnull align 8 dereferenceable(24) %0, ptr noundef %1) unnamed_addr #1 comdat align 2 {
  %3 = alloca ptr, align 8
  %4 = alloca ptr, align 8
  store ptr %0, ptr %3, align 8
  store ptr %1, ptr %4, align 8
  %5 = load ptr, ptr %3, align 8
  %6 = getelementptr inbounds %class.ZRootStatTimer, ptr %5, i32 0, i32 0
  %7 = load ptr, ptr %4, align 8
  store ptr %7, ptr %6, align 8
  %8 = getelementptr inbounds %class.ZRootStatTimer, ptr %5, i32 0, i32 1
  %9 = call { i64, i64 } @_ZN11TimeInstantI30CompositeCounterRepresentation29CompositeElapsedCounterSourceE3nowEv()
  %10 = getelementptr inbounds %class.TimeInstant, ptr %8, i32 0, i32 0
  %11 = getelementptr inbounds %class.CompositeCounterRepresentation, ptr %10, i32 0, i32 0
  %12 = getelementptr inbounds %class.Representation, ptr %11, i32 0, i32 0
  %13 = getelementptr inbounds { i64, i64 }, ptr %12, i32 0, i32 0
  %14 = extractvalue { i64, i64 } %9, 0
  store i64 %14, ptr %13, align 8
  %15 = getelementptr inbounds { i64, i64 }, ptr %12, i32 0, i32 1
  %16 = extractvalue { i64, i64 } %9, 1
  store i64 %16, ptr %15, align 8
  %17 = load ptr, ptr %4, align 8
  %18 = icmp ne ptr %17, null
  br i1 %18, label %19, label %26

19:                                               ; preds = %2
  %20 = getelementptr inbounds %class.ZRootStatTimer, ptr %5, i32 0, i32 0
  %21 = load ptr, ptr %20, align 8
  %22 = getelementptr inbounds %class.ZRootStatTimer, ptr %5, i32 0, i32 1
  %23 = load ptr, ptr %21, align 8
  %24 = getelementptr inbounds ptr, ptr %23, i64 0
  %25 = load ptr, ptr %24, align 8
  call void %25(ptr noundef nonnull align 8 dereferenceable(48) %21, ptr noundef null, ptr noundef nonnull align 8 dereferenceable(16) %22)
  br label %26

26:                                               ; preds = %19, %2
  ret void
}

; Function Attrs: mustprogress nounwind uwtable
define linkonce_odr hidden noundef ptr @_ZN14ZRootStatTimer18calculate_subphaseE21ZGenerationIdOptionalRK17ZRootStatSubPhase(i8 noundef zeroext %0, ptr noundef nonnull align 8 dereferenceable(96) %1) #1 comdat align 2 {
  %3 = alloca ptr, align 8
  %4 = alloca i8, align 1
  %5 = alloca ptr, align 8
  store i8 %0, ptr %4, align 1
  store ptr %1, ptr %5, align 8
  %6 = load i8, ptr %4, align 1
  switch i8 %6, label %13 [
    i8 0, label %7
    i8 1, label %10
  ]

7:                                                ; preds = %2
  %8 = load ptr, ptr %5, align 8
  %9 = call noundef nonnull align 8 dereferenceable(48) ptr @_ZNK17ZRootStatSubPhase5youngEv(ptr noundef nonnull align 8 dereferenceable(96) %8)
  store ptr %9, ptr %3, align 8
  br label %14

10:                                               ; preds = %2
  %11 = load ptr, ptr %5, align 8
  %12 = call noundef nonnull align 8 dereferenceable(48) ptr @_ZNK17ZRootStatSubPhase3oldEv(ptr noundef nonnull align 8 dereferenceable(96) %11)
  store ptr %12, ptr %3, align 8
  br label %14

13:                                               ; preds = %2
  store ptr null, ptr %3, align 8
  br label %14

14:                                               ; preds = %13, %10, %7
  %15 = load ptr, ptr %3, align 8
  ret ptr %15
}

; Function Attrs: mustprogress nounwind uwtable
define linkonce_odr hidden void @_ZNK6Atomic13PlatformStoreILm1EEclIbEEvPVT_S3_(ptr noundef nonnull align 1 dereferenceable(1) %0, ptr noundef %1, i1 noundef zeroext %2) #1 comdat align 2 {
  %4 = alloca ptr, align 8
  %5 = alloca ptr, align 8
  %6 = alloca i8, align 1
  store ptr %0, ptr %4, align 8
  store ptr %1, ptr %5, align 8
  %7 = zext i1 %2 to i8
  store i8 %7, ptr %6, align 1
  %8 = load i8, ptr %6, align 1
  %9 = trunc i8 %8 to i1
  %10 = load ptr, ptr %5, align 8
  %11 = zext i1 %9 to i8
  store volatile i8 %11, ptr %10, align 1
  ret void
}

; Function Attrs: mustprogress nounwind uwtable
define linkonce_odr hidden noundef zeroext i1 @_ZNK6Atomic12PlatformLoadILm1EEclIbEET_PVKS3_(ptr noundef nonnull align 1 dereferenceable(1) %0, ptr noundef %1) #1 comdat align 2 {
  %3 = alloca ptr, align 8
  %4 = alloca ptr, align 8
  store ptr %0, ptr %3, align 8
  store ptr %1, ptr %4, align 8
  %5 = load ptr, ptr %4, align 8
  %6 = load volatile i8, ptr %5, align 1
  %7 = trunc i8 %6 to i1
  ret i1 %7
}

; Function Attrs: mustprogress nounwind uwtable
define linkonce_odr hidden void @_ZN14ZRootStatTimerD2Ev(ptr noundef nonnull align 8 dereferenceable(24) %0) unnamed_addr #1 comdat align 2 {
  %2 = alloca ptr, align 8
  %3 = alloca %class.TimeInstant, align 8
  store ptr %0, ptr %2, align 8
  %4 = load ptr, ptr %2, align 8
  %5 = getelementptr inbounds %class.ZRootStatTimer, ptr %4, i32 0, i32 0
  %6 = load ptr, ptr %5, align 8
  %7 = icmp ne ptr %6, null
  br i1 %7, label %8, label %23

8:                                                ; preds = %1
  %9 = call { i64, i64 } @_ZN11TimeInstantI30CompositeCounterRepresentation29CompositeElapsedCounterSourceE3nowEv()
  %10 = getelementptr inbounds %class.TimeInstant, ptr %3, i32 0, i32 0
  %11 = getelementptr inbounds %class.CompositeCounterRepresentation, ptr %10, i32 0, i32 0
  %12 = getelementptr inbounds %class.Representation, ptr %11, i32 0, i32 0
  %13 = getelementptr inbounds { i64, i64 }, ptr %12, i32 0, i32 0
  %14 = extractvalue { i64, i64 } %9, 0
  store i64 %14, ptr %13, align 8
  %15 = getelementptr inbounds { i64, i64 }, ptr %12, i32 0, i32 1
  %16 = extractvalue { i64, i64 } %9, 1
  store i64 %16, ptr %15, align 8
  %17 = getelementptr inbounds %class.ZRootStatTimer, ptr %4, i32 0, i32 0
  %18 = load ptr, ptr %17, align 8
  %19 = getelementptr inbounds %class.ZRootStatTimer, ptr %4, i32 0, i32 1
  %20 = load ptr, ptr %18, align 8
  %21 = getelementptr inbounds ptr, ptr %20, i64 1
  %22 = load ptr, ptr %21, align 8
  call void %22(ptr noundef nonnull align 8 dereferenceable(48) %18, ptr noundef null, ptr noundef nonnull align 8 dereferenceable(16) %19, ptr noundef nonnull align 8 dereferenceable(16) %3)
  br label %23

23:                                               ; preds = %8, %1
  ret void
}

; Function Attrs: mustprogress nounwind uwtable
define linkonce_odr hidden void @_ZN14ZRootStatTimerC2ERK17ZRootStatSubPhase21ZGenerationIdOptional(ptr noundef nonnull align 8 dereferenceable(24) %0, ptr noundef nonnull align 8 dereferenceable(96) %1, i8 noundef zeroext %2) unnamed_addr #1 comdat align 2 {
  %4 = alloca ptr, align 8
  %5 = alloca ptr, align 8
  %6 = alloca i8, align 1
  store ptr %0, ptr %4, align 8
  store ptr %1, ptr %5, align 8
  store i8 %2, ptr %6, align 1
  %7 = load ptr, ptr %4, align 8
  %8 = load i8, ptr %6, align 1
  %9 = load ptr, ptr %5, align 8
  %10 = call noundef ptr @_ZN14ZRootStatTimer18calculate_subphaseE21ZGenerationIdOptionalRK17ZRootStatSubPhase(i8 noundef zeroext %8, ptr noundef nonnull align 8 dereferenceable(96) %9)
  call void @_ZN14ZRootStatTimerC2EPK10ZStatPhase(ptr noundef nonnull align 8 dereferenceable(24) %7, ptr noundef %10)
  ret void
}

; Function Attrs: mustprogress nounwind uwtable
define linkonce_odr hidden void @_ZNK6Atomic9StoreImplIbbNS_13PlatformStoreILm1EEEvEclEPVbb(ptr noundef nonnull align 1 dereferenceable(1) %0, ptr noundef %1, i1 noundef zeroext %2) #1 comdat align 2 {
  %4 = alloca ptr, align 8
  %5 = alloca ptr, align 8
  %6 = alloca i8, align 1
  %7 = alloca %"struct.Atomic::PlatformStore", align 1
  store ptr %0, ptr %4, align 8
  store ptr %1, ptr %5, align 8
  %8 = zext i1 %2 to i8
  store i8 %8, ptr %6, align 1
  %9 = load ptr, ptr %5, align 8
  %10 = load i8, ptr %6, align 1
  %11 = trunc i8 %10 to i1
  call void @_ZNK6Atomic13PlatformStoreILm1EEclIbEEvPVT_S3_(ptr noundef nonnull align 1 dereferenceable(1) %7, ptr noundef %9, i1 noundef zeroext %11)
  ret void
}

; Function Attrs: mustprogress nounwind uwtable
define linkonce_odr hidden noundef zeroext i1 @_ZNK6Atomic8LoadImplIbNS_12PlatformLoadILm1EEEvEclEPVKb(ptr noundef nonnull align 1 dereferenceable(1) %0, ptr noundef %1) #1 comdat align 2 {
  %3 = alloca ptr, align 8
  %4 = alloca ptr, align 8
  %5 = alloca %"struct.Atomic::PlatformLoad", align 1
  store ptr %0, ptr %3, align 8
  store ptr %1, ptr %4, align 8
  %6 = load ptr, ptr %4, align 8
  %7 = call noundef zeroext i1 @_ZNK6Atomic12PlatformLoadILm1EEclIbEET_PVKS3_(ptr noundef nonnull align 1 dereferenceable(1) %5, ptr noundef %6)
  ret i1 %7
}

; Function Attrs: mustprogress nounwind uwtable
define hidden void @_ZN21ZNMethodsIteratorImpl5applyEP14NMethodClosure(ptr noundef nonnull align 1 dereferenceable(3) %0, ptr noundef %1) #1 align 2 {
  %3 = alloca ptr, align 8
  %4 = alloca ptr, align 8
  %5 = alloca %class.ZRootStatTimer, align 8
  store ptr %0, ptr %3, align 8
  store ptr %1, ptr %4, align 8
  %6 = load ptr, ptr %3, align 8
  %7 = getelementptr inbounds %class.ZNMethodsIteratorImpl, ptr %6, i32 0, i32 2
  %8 = load i8, ptr %7, align 1
  call void @_ZN14ZRootStatTimerC2ERK17ZRootStatSubPhase21ZGenerationIdOptional(ptr noundef nonnull align 8 dereferenceable(24) %5, ptr noundef nonnull align 8 dereferenceable(96) @_ZL33ZSubPhaseConcurrentRootsCodeCache, i8 noundef zeroext %8)
  %9 = getelementptr inbounds %class.ZNMethodsIteratorImpl, ptr %6, i32 0, i32 1
  %10 = load i8, ptr %9, align 1
  %11 = trunc i8 %10 to i1
  %12 = load ptr, ptr %4, align 8
  call void @_ZN8ZNMethod11nmethods_doEbP14NMethodClosure(i1 noundef zeroext %11, ptr noundef %12)
  call void @_ZN14ZRootStatTimerD2Ev(ptr noundef nonnull align 8 dereferenceable(24) %5) #7
  ret void
}

; Function Attrs: mustprogress nounwind uwtable
define linkonce_odr hidden void @_ZN6Atomic5storeIbbEEvPVT_T0_(ptr noundef %0, i1 noundef zeroext %1) #1 comdat align 2 {
  %3 = alloca ptr, align 8
  %4 = alloca i8, align 1
  %5 = alloca %"struct.Atomic::StoreImpl", align 1
  store ptr %0, ptr %3, align 8
  %6 = zext i1 %1 to i8
  store i8 %6, ptr %4, align 1
  %7 = load ptr, ptr %3, align 8
  %8 = load i8, ptr %4, align 1
  %9 = trunc i8 %8 to i1
  call void @_ZNK6Atomic9StoreImplIbbNS_13PlatformStoreILm1EEEvEclEPVbb(ptr noundef nonnull align 1 dereferenceable(1) %5, ptr noundef %7, i1 noundef zeroext %9)
  ret void
}

; Function Attrs: mustprogress nounwind uwtable
define linkonce_odr hidden noundef zeroext i1 @_ZN6Atomic4loadIbEET_PVKS1_(ptr noundef %0) #1 comdat align 2 {
  %2 = alloca ptr, align 8
  %3 = alloca %"struct.Atomic::LoadImpl", align 1
  store ptr %0, ptr %2, align 8
  %4 = load ptr, ptr %2, align 8
  %5 = call noundef zeroext i1 @_ZNK6Atomic8LoadImplIbNS_12PlatformLoadILm1EEEvEclEPVKb(ptr noundef nonnull align 1 dereferenceable(1) %3, ptr noundef %4)
  ret i1 %5
}

; Function Attrs: mustprogress nounwind uwtable
define linkonce_odr hidden void @_ZN14ZParallelApplyI23ZNMethodsIteratorStrongE5applyI14NMethodClosureEEvPT_(ptr noundef nonnull align 1 dereferenceable(4) %0, ptr noundef %1) #1 comdat align 2 {
  %3 = alloca ptr, align 8
  %4 = alloca ptr, align 8
  store ptr %0, ptr %3, align 8
  store ptr %1, ptr %4, align 8
  %5 = load ptr, ptr %3, align 8
  %6 = getelementptr inbounds %class.ZParallelApply.11, ptr %5, i32 0, i32 1
  %7 = call noundef zeroext i1 @_ZN6Atomic4loadIbEET_PVKS1_(ptr noundef %6)
  br i1 %7, label %16, label %8

8:                                                ; preds = %2
  %9 = getelementptr inbounds %class.ZParallelApply.11, ptr %5, i32 0, i32 0
  %10 = load ptr, ptr %4, align 8
  call void @_ZN21ZNMethodsIteratorImpl5applyEP14NMethodClosure(ptr noundef nonnull align 1 dereferenceable(3) %9, ptr noundef %10)
  %11 = getelementptr inbounds %class.ZParallelApply.11, ptr %5, i32 0, i32 1
  %12 = call noundef zeroext i1 @_ZN6Atomic4loadIbEET_PVKS1_(ptr noundef %11)
  br i1 %12, label %15, label %13

13:                                               ; preds = %8
  %14 = getelementptr inbounds %class.ZParallelApply.11, ptr %5, i32 0, i32 1
  call void @_ZN6Atomic5storeIbbEEvPVT_T0_(ptr noundef %14, i1 noundef zeroext true)
  br label %15

15:                                               ; preds = %13, %8
  br label %16

16:                                               ; preds = %15, %2
  ret void
}

; Function Attrs: mustprogress nounwind uwtable
define linkonce_odr hidden void @_ZN14ZParallelApplyI20ZJavaThreadsIteratorE5applyI13ThreadClosureEEvPT_(ptr noundef nonnull align 8 dereferenceable(65) %0, ptr noundef %1) #1 comdat align 2 {
  %3 = alloca ptr, align 8
  %4 = alloca ptr, align 8
  store ptr %0, ptr %3, align 8
  store ptr %1, ptr %4, align 8
  %5 = load ptr, ptr %3, align 8
  %6 = getelementptr inbounds %class.ZParallelApply.9, ptr %5, i32 0, i32 1
  %7 = call noundef zeroext i1 @_ZN6Atomic4loadIbEET_PVKS1_(ptr noundef %6)
  br i1 %7, label %16, label %8

8:                                                ; preds = %2
  %9 = getelementptr inbounds %class.ZParallelApply.9, ptr %5, i32 0, i32 0
  %10 = load ptr, ptr %4, align 8
  call void @_ZN20ZJavaThreadsIterator5applyEP13ThreadClosure(ptr noundef nonnull align 8 dereferenceable(61) %9, ptr noundef %10)
  %11 = getelementptr inbounds %class.ZParallelApply.9, ptr %5, i32 0, i32 1
  %12 = call noundef zeroext i1 @_ZN6Atomic4loadIbEET_PVKS1_(ptr noundef %11)
  br i1 %12, label %15, label %13

13:                                               ; preds = %8
  %14 = getelementptr inbounds %class.ZParallelApply.9, ptr %5, i32 0, i32 1
  call void @_ZN6Atomic5storeIbbEEvPVT_T0_(ptr noundef %14, i1 noundef zeroext true)
  br label %15

15:                                               ; preds = %13, %8
  br label %16

16:                                               ; preds = %15, %2
  ret void
}

; Function Attrs: mustprogress nounwind uwtable
define hidden void @_ZN29ZRootsIteratorStrongUncolored5applyEP13ThreadClosureP14NMethodClosure(ptr noundef nonnull align 8 dereferenceable(76) %0, ptr noundef %1, ptr noundef %2) #1 align 2 {
  %4 = alloca ptr, align 8
  %5 = alloca ptr, align 8
  %6 = alloca ptr, align 8
  store ptr %0, ptr %4, align 8
  store ptr %1, ptr %5, align 8
  store ptr %2, ptr %6, align 8
  %7 = load ptr, ptr %4, align 8
  %8 = getelementptr inbounds %class.ZRootsIteratorStrongUncolored, ptr %7, i32 0, i32 0
  %9 = load ptr, ptr %5, align 8
  call void @_ZN14ZParallelApplyI20ZJavaThreadsIteratorE5applyI13ThreadClosureEEvPT_(ptr noundef nonnull align 8 dereferenceable(65) %8, ptr noundef %9)
  %10 = load i8, ptr @ClassUnloading, align 1
  %11 = trunc i8 %10 to i1
  br i1 %11, label %15, label %12

12:                                               ; preds = %3
  %13 = getelementptr inbounds %class.ZRootsIteratorStrongUncolored, ptr %7, i32 0, i32 1
  %14 = load ptr, ptr %6, align 8
  call void @_ZN14ZParallelApplyI23ZNMethodsIteratorStrongE5applyI14NMethodClosureEEvPT_(ptr noundef nonnull align 1 dereferenceable(4) %13, ptr noundef %14)
  br label %15

15:                                               ; preds = %12, %3
  ret void
}