; Function Attrs: mustprogress nounwind uwtable
define hidden void @_ZN29ZRootsIteratorStrongUncolored5applyEP13ThreadClosureP14NMethodClosure(ptr noundef nonnull align 8 dereferenceable(76) %0, ptr noundef %1, ptr noundef %2) local_unnamed_addr #0 align 2 {
  %4 = alloca %class.TimeInstant, align 8
  %5 = alloca %class.ZRootStatTimer, align 8
  %6 = getelementptr inbounds i8, ptr %0, i64 64
  %7 = load volatile i8, ptr %6, align 8
  %8 = trunc i8 %7 to i1
  br i1 %8, label %_ZN14ZParallelApplyI20ZJavaThreadsIteratorE5applyI13ThreadClosureEEvPT_.exit, label %9

9:                                                ; preds = %3
  tail call void @_ZN20ZJavaThreadsIterator5applyEP13ThreadClosure(ptr noundef nonnull align 8 dereferenceable(61) %0, ptr noundef %1)
  %10 = load volatile i8, ptr %6, align 8
  %11 = trunc i8 %10 to i1
  br i1 %11, label %_ZN14ZParallelApplyI20ZJavaThreadsIteratorE5applyI13ThreadClosureEEvPT_.exit, label %12

12:                                               ; preds = %9
  store volatile i8 1, ptr %6, align 8
  br label %_ZN14ZParallelApplyI20ZJavaThreadsIteratorE5applyI13ThreadClosureEEvPT_.exit

_ZN14ZParallelApplyI20ZJavaThreadsIteratorE5applyI13ThreadClosureEEvPT_.exit: ; preds = %3, %9, %12
  %13 = load i8, ptr @ClassUnloading, align 1
  %14 = trunc i8 %13 to i1
  br i1 %14, label %_ZN14ZParallelApplyI23ZNMethodsIteratorStrongE5applyI14NMethodClosureEEvPT_.exit, label %15

15:                                               ; preds = %_ZN14ZParallelApplyI20ZJavaThreadsIteratorE5applyI13ThreadClosureEEvPT_.exit
  %16 = getelementptr inbounds i8, ptr %0, i64 75
  %17 = load volatile i8, ptr %16, align 1
  %18 = trunc i8 %17 to i1
  br i1 %18, label %_ZN14ZParallelApplyI23ZNMethodsIteratorStrongE5applyI14NMethodClosureEEvPT_.exit, label %19

19:                                               ; preds = %15
  call void @llvm.lifetime.start.p0(i64 24, ptr nonnull %5)
  %20 = getelementptr inbounds i8, ptr %0, i64 74
  %21 = load i8, ptr %20, align 2
  %switch.selectcmp.i.i = icmp eq i8 %21, 1
  %switch.select.i.i = select i1 %switch.selectcmp.i.i, ptr getelementptr inbounds (i8, ptr @_ZL33ZSubPhaseConcurrentRootsCodeCache, i64 48), ptr null
  %switch.selectcmp2.i.i = icmp eq i8 %21, 0
  %switch.select3.i.i = select i1 %switch.selectcmp2.i.i, ptr @_ZL33ZSubPhaseConcurrentRootsCodeCache, ptr %switch.select.i.i
  store ptr %switch.select3.i.i, ptr %5, align 8
  %22 = getelementptr inbounds i8, ptr %5, i64 8
  %23 = tail call { i64, i64 } @_ZN29CompositeElapsedCounterSource3nowEv() #7
  %24 = extractvalue { i64, i64 } %23, 0
  store i64 %24, ptr %22, align 8
  %25 = getelementptr inbounds i8, ptr %5, i64 16
  %26 = extractvalue { i64, i64 } %23, 1
  store i64 %26, ptr %25, align 8
  %.not.i.i.i.i = icmp eq ptr %switch.select3.i.i, null
  br i1 %.not.i.i.i.i, label %_ZN14ZRootStatTimerC2ERK17ZRootStatSubPhase21ZGenerationIdOptional.exit.i.i, label %27

27:                                               ; preds = %19
  %28 = load ptr, ptr %switch.select3.i.i, align 8
  %29 = load ptr, ptr %28, align 8
  call void %29(ptr noundef nonnull align 8 dereferenceable(48) %switch.select3.i.i, ptr noundef null, ptr noundef nonnull align 8 dereferenceable(16) %22) #7
  br label %_ZN14ZRootStatTimerC2ERK17ZRootStatSubPhase21ZGenerationIdOptional.exit.i.i

_ZN14ZRootStatTimerC2ERK17ZRootStatSubPhase21ZGenerationIdOptional.exit.i.i: ; preds = %27, %19
  %30 = getelementptr inbounds i8, ptr %0, i64 73
  %31 = load i8, ptr %30, align 1
  %32 = trunc i8 %31 to i1
  call void @_ZN8ZNMethod11nmethods_doEbP14NMethodClosure(i1 noundef zeroext %32, ptr noundef %2) #7
  call void @llvm.lifetime.start.p0(i64 16, ptr nonnull %4)
  %33 = load ptr, ptr %5, align 8
  %.not.i.i.i = icmp eq ptr %33, null
  br i1 %.not.i.i.i, label %_ZN21ZNMethodsIteratorImpl5applyEP14NMethodClosure.exit.i, label %34

34:                                               ; preds = %_ZN14ZRootStatTimerC2ERK17ZRootStatSubPhase21ZGenerationIdOptional.exit.i.i
  %35 = call { i64, i64 } @_ZN29CompositeElapsedCounterSource3nowEv() #7
  %36 = extractvalue { i64, i64 } %35, 0
  store i64 %36, ptr %4, align 8
  %37 = getelementptr inbounds i8, ptr %4, i64 8
  %38 = extractvalue { i64, i64 } %35, 1
  store i64 %38, ptr %37, align 8
  %39 = load ptr, ptr %5, align 8
  %40 = load ptr, ptr %39, align 8
  %41 = getelementptr inbounds i8, ptr %40, i64 8
  %42 = load ptr, ptr %41, align 8
  call void %42(ptr noundef nonnull align 8 dereferenceable(48) %39, ptr noundef null, ptr noundef nonnull align 8 dereferenceable(16) %22, ptr noundef nonnull align 8 dereferenceable(16) %4) #7
  br label %_ZN21ZNMethodsIteratorImpl5applyEP14NMethodClosure.exit.i

_ZN21ZNMethodsIteratorImpl5applyEP14NMethodClosure.exit.i: ; preds = %34, %_ZN14ZRootStatTimerC2ERK17ZRootStatSubPhase21ZGenerationIdOptional.exit.i.i
  call void @llvm.lifetime.end.p0(i64 16, ptr nonnull %4)
  call void @llvm.lifetime.end.p0(i64 24, ptr nonnull %5)
  %43 = load volatile i8, ptr %16, align 1
  %44 = trunc i8 %43 to i1
  br i1 %44, label %_ZN14ZParallelApplyI23ZNMethodsIteratorStrongE5applyI14NMethodClosureEEvPT_.exit, label %45

45:                                               ; preds = %_ZN21ZNMethodsIteratorImpl5applyEP14NMethodClosure.exit.i
  store volatile i8 1, ptr %16, align 1
  br label %_ZN14ZParallelApplyI23ZNMethodsIteratorStrongE5applyI14NMethodClosureEEvPT_.exit

_ZN14ZParallelApplyI23ZNMethodsIteratorStrongE5applyI14NMethodClosureEEvPT_.exit: ; preds = %45, %_ZN21ZNMethodsIteratorImpl5applyEP14NMethodClosure.exit.i, %15, %_ZN14ZParallelApplyI20ZJavaThreadsIteratorE5applyI13ThreadClosureEEvPT_.exit
  ret void
}